; Function Attrs: null_pointer_is_valid sspstrong uwtable
define hidden i32 @wrap_dissect_gssapi_verf(ptr noundef %0, i32 noundef %1, ptr noundef %2, ptr noundef %3, ptr readnone captures(none) %4, ptr readnone captures(none) %5) #0 {
  %7 = alloca %struct._gssapi_encrypt_info, align 8
  %8 = tail call ptr @tvb_new_subset_remaining(ptr noundef %0, i32 noundef %1)
  call void @llvm.lifetime.start.p0(i64 56, ptr nonnull %7) #13
  call void @llvm.memset.p0.i64(ptr noundef nonnull align 8 dereferenceable(56) %7, i8 noundef 0, i64 noundef 56, i1 noundef false) #13
  %9 = call fastcc i32 @dissect_gssapi_work(ptr noundef %8, ptr noundef %2, ptr noundef %3, i1 noundef zeroext true, ptr noundef nonnull %7)
  call void @llvm.lifetime.end.p0(i64 56, ptr nonnull %7) #13
  ret i32 %9
}